; Function Attrs: mustprogress uwtable
define noundef i32 @ucal_getCanonicalTimeZoneID_75(ptr noundef %id, i32 noundef %len, ptr noundef %result, i32 noundef %resultCapacity, ptr noundef writeonly %isSystemID, ptr noundef %status) local_unnamed_addr #1 personality ptr @__gxx_personality_v0 {
entry:
  %canonical = alloca %"class.icu_75::UnicodeString", align 8
  %systemID = alloca i8, align 1
  %ref.tmp = alloca %"class.icu_75::UnicodeString", align 8
  %agg.tmp = alloca %"class.icu_75::Char16Ptr", align 8
  %cmp = icmp eq ptr %status, null
  br i1 %cmp, label %return, label %lor.lhs.false

lor.lhs.false:                                    ; preds = %entry
  %0 = load i32, ptr %status, align 4
  %cmp.i = icmp slt i32 %0, 1
  br i1 %cmp.i, label %if.end, label %return

if.end:                                           ; preds = %lor.lhs.false
  %tobool1.not = icmp eq ptr %isSystemID, null
  br i1 %tobool1.not, label %if.end3, label %if.then2

if.then2:                                         ; preds = %if.end
  store i8 0, ptr %isSystemID, align 1
  br label %if.end3

if.end3:                                          ; preds = %if.then2, %if.end
  %cmp4 = icmp eq ptr %id, null
  %cmp6 = icmp eq i32 %len, 0
  %or.cond = or i1 %cmp4, %cmp6
  %cmp8 = icmp eq ptr %result, null
  %or.cond1 = or i1 %or.cond, %cmp8
  %cmp10 = icmp slt i32 %resultCapacity, 1
  %or.cond2 = or i1 %or.cond1, %cmp10
  br i1 %or.cond2, label %if.then11, label %if.end12

if.then11:                                        ; preds = %if.end3
  store i32 1, ptr %status, align 4
  br label %return

if.end12:                                         ; preds = %if.end3
  store ptr getelementptr inbounds ({ [13 x ptr] }, ptr @_ZTVN6icu_7513UnicodeStringE, i64 0, i32 0, i64 2), ptr %canonical, align 8
  %fUnion2.i = getelementptr inbounds i8, ptr %canonical, i64 8
  store i16 2, ptr %fUnion2.i, align 8
  store i8 0, ptr %systemID, align 1
  invoke void @_ZN6icu_7513UnicodeStringC1EPKDsi(ptr noundef nonnull align 8 dereferenceable(64) %ref.tmp, ptr noundef nonnull %id, i32 noundef %len)
          to label %invoke.cont unwind label %lpad

invoke.cont:                                      ; preds = %if.end12
  %call15 = invoke noundef nonnull align 8 dereferenceable(64) ptr @_ZN6icu_758TimeZone14getCanonicalIDERKNS_13UnicodeStringERS1_RaR10UErrorCode(ptr noundef nonnull align 8 dereferenceable(64) %ref.tmp, ptr noundef nonnull align 8 dereferenceable(64) %canonical, ptr noundef nonnull align 1 dereferenceable(1) %systemID, ptr noundef nonnull align 4 dereferenceable(4) %status)
          to label %invoke.cont14 unwind label %lpad13

invoke.cont14:                                    ; preds = %invoke.cont
  call void @_ZN6icu_7513UnicodeStringD1Ev(ptr noundef nonnull align 8 dereferenceable(64) %ref.tmp) #11
  %1 = load i32, ptr %status, align 4
  %cmp.i16 = icmp sgt i32 %1, 0
  br i1 %cmp.i16, label %if.end27, label %if.then19

if.then19:                                        ; preds = %invoke.cont14
  br i1 %tobool1.not, label %if.end22, label %if.then21

if.then21:                                        ; preds = %if.then19
  %2 = load i8, ptr %systemID, align 1
  store i8 %2, ptr %isSystemID, align 1
  br label %if.end22

lpad:                                             ; preds = %if.end12
  %3 = landingpad { ptr, i32 }
          cleanup
  br label %ehcleanup

lpad13:                                           ; preds = %invoke.cont
  %4 = landingpad { ptr, i32 }
          cleanup
  call void @_ZN6icu_7513UnicodeStringD1Ev(ptr noundef nonnull align 8 dereferenceable(64) %ref.tmp) #11
  br label %ehcleanup

if.end22:                                         ; preds = %if.then21, %if.then19
  store ptr %result, ptr %agg.tmp, align 8
  %call26 = invoke noundef i32 @_ZNK6icu_7513UnicodeString7extractENS_9Char16PtrEiR10UErrorCode(ptr noundef nonnull align 8 dereferenceable(64) %canonical, ptr noundef nonnull %agg.tmp, i32 noundef %resultCapacity, ptr noundef nonnull align 4 dereferenceable(4) %status)
          to label %invoke.cont25 unwind label %lpad24

invoke.cont25:                                    ; preds = %if.end22
  %5 = load ptr, ptr %agg.tmp, align 8
  call void asm sideeffect "", "rm,~{memory},~{dirflag},~{fpsr},~{flags}"(ptr %5) #11, !srcloc !4
  br label %if.end27

lpad24:                                           ; preds = %if.end22
  %6 = landingpad { ptr, i32 }
          cleanup
  %7 = load ptr, ptr %agg.tmp, align 8
  call void asm sideeffect "", "rm,~{memory},~{dirflag},~{fpsr},~{flags}"(ptr %7) #11, !srcloc !4
  br label %ehcleanup

if.end27:                                         ; preds = %invoke.cont25, %invoke.cont14
  %reslen.0 = phi i32 [ %call26, %invoke.cont25 ], [ 0, %invoke.cont14 ]
  call void @_ZN6icu_7513UnicodeStringD1Ev(ptr noundef nonnull align 8 dereferenceable(64) %canonical) #11
  br label %return

ehcleanup:                                        ; preds = %lpad24, %lpad13, %lpad
  %.pn = phi { ptr, i32 } [ %6, %lpad24 ], [ %4, %lpad13 ], [ %3, %lpad ]
  call void @_ZN6icu_7513UnicodeStringD1Ev(ptr noundef nonnull align 8 dereferenceable(64) %canonical) #11
  resume { ptr, i32 } %.pn

return:                                           ; preds = %entry, %lor.lhs.false, %if.end27, %if.then11
  %retval.0 = phi i32 [ 0, %if.then11 ], [ %reslen.0, %if.end27 ], [ 0, %lor.lhs.false ], [ 0, %entry ]
  ret i32 %retval.0
}